target datalayout = "e-m:e-p270:32:32-p271:32:32-p272:64:64-i64:64-i128:128-f80:128-n8:16:32:64-S128"
target triple = "x86_64-pc-linux-gnu"

%class.anon = type { ptr, i64 }

; Function Attrs: mustprogress nounwind uwtable
define internal noundef zeroext i1 @"_ZZN32pxrInternal_v0_24__pxrReserved__14UsdGeomXformOp25_GetOpTypeEnumFromCStringEPKcmENK3$_0clES2_"(ptr noundef nonnull align 8 dereferenceable(16) %0, ptr noundef %1) #0 align 2 {
  %3 = alloca ptr, align 8
  %4 = alloca ptr, align 8
  store ptr %0, ptr %3, align 8
  store ptr %1, ptr %4, align 8
  %5 = load ptr, ptr %3, align 8
  %6 = load ptr, ptr %4, align 8
  %7 = call i64 @strlen(ptr noundef %6) #16
  %8 = getelementptr inbounds nuw %class.anon, ptr %5, i32 0, i32 1
  %9 = load i64, ptr %8, align 8
  %10 = icmp eq i64 %7, %9
  br i1 %10, label %11, label %19

11:                                               ; preds = %2
  %12 = load ptr, ptr %4, align 8
  %13 = getelementptr inbounds nuw %class.anon, ptr %5, i32 0, i32 0
  %14 = load ptr, ptr %13, align 8
  %15 = getelementptr inbounds nuw %class.anon, ptr %5, i32 0, i32 1
  %16 = load i64, ptr %15, align 8
  %17 = call i32 @strncmp(ptr noundef %12, ptr noundef %14, i64 noundef %16) #16
  %18 = icmp eq i32 %17, 0
  br label %19

19:                                               ; preds = %11, %2
  %20 = phi i1 [ false, %2 ], [ %18, %11 ]
  ret i1 %20
}