; Function Attrs: mustprogress nofree nounwind willreturn memory(argmem: read) uwtable
define internal fastcc noundef zeroext i1 @"_ZZN32pxrInternal_v0_24__pxrReserved__14UsdGeomXformOp25_GetOpTypeEnumFromCStringEPKcmENK3$_0clES2_"(ptr nocapture readonly %.0.val, i64 %.8.val, ptr nocapture noundef readonly %0) unnamed_addr #5 align 2 {
  %2 = tail call i64 @strlen(ptr noundef nonnull dereferenceable(1) %0) #25
  %3 = icmp eq i64 %2, %.8.val
  br i1 %3, label %4, label %7

4:                                                ; preds = %1
  %5 = tail call i32 @strncmp(ptr noundef %0, ptr noundef %.0.val, i64 noundef %.8.val) #25
  %6 = icmp eq i32 %5, 0
  br label %7

7:                                                ; preds = %4, %1
  %8 = phi i1 [ false, %1 ], [ %6, %4 ]
  ret i1 %8
}